; Function Attrs: inlinehint mustprogress nofree norecurse nosync nounwind willreturn memory(argmem: readwrite) uwtable
define internal fastcc void @idctRowCondDC_int16_12bit(ptr noundef captures(none) %0) unnamed_addr #1 {
  %2 = getelementptr inbounds nuw i8, ptr %0, i64 4
  %3 = load i32, ptr %2, align 4
  %4 = getelementptr inbounds nuw i8, ptr %0, i64 8
  %5 = load i32, ptr %4, align 4, !tbaa !10
  %6 = getelementptr inbounds nuw i8, ptr %0, i64 12
  %7 = load i32, ptr %6, align 4, !tbaa !10
  %8 = or i32 %5, %7
  %9 = or i32 %8, %3
  %10 = getelementptr inbounds nuw i8, ptr %0, i64 2
  %11 = load i16, ptr %10, align 2, !tbaa !6
  %12 = sext i16 %11 to i32
  %13 = or i32 %9, %12
  %.not = icmp eq i32 %13, 0
  %14 = load i16, ptr %0, align 2, !tbaa !6
  %15 = sext i16 %14 to i32
  br i1 %.not, label %16, label %21

16:                                               ; preds = %1
  %17 = add nsw i32 %15, 1
  %18 = lshr i32 %17, 1
  %19 = and i32 %18, 65535
  %20 = mul nuw i32 %19, 65537
  store i32 %20, ptr %0, align 4, !tbaa !10
  store i32 %20, ptr %2, align 4, !tbaa !10
  store i32 %20, ptr %4, align 4, !tbaa !10
  store i32 %20, ptr %6, align 4, !tbaa !10
  br label %108

21:                                               ; preds = %1
  %22 = mul nsw i32 %15, 32767
  %23 = add nsw i32 %22, 32768
  %sext = shl i32 %3, 16
  %24 = ashr exact i32 %sext, 16
  %25 = mul nsw i32 %24, 42813
  %26 = add i32 %23, %25
  %27 = mul nsw i32 %24, 17734
  %28 = add nsw i32 %23, %27
  %29 = sub nsw i32 %23, %27
  %30 = sub i32 %23, %25
  %31 = mul nsw i32 %12, 45451
  %32 = getelementptr inbounds nuw i8, ptr %0, i64 6
  %33 = ashr i32 %3, 16
  %34 = mul nsw i32 %33, 38531
  %35 = add i32 %34, %31
  %36 = mul nsw i32 %12, 38531
  %37 = mul nsw i32 %33, -9041
  %38 = add nsw i32 %37, %36
  %39 = mul nsw i32 %12, 25746
  %40 = mul nsw i32 %33, -45451
  %41 = add i32 %40, %39
  %42 = mul nsw i32 %12, 9041
  %43 = mul nsw i32 %33, -25746
  %44 = add nsw i32 %43, %42
  %45 = load i64, ptr %4, align 8
  %.not114 = icmp eq i64 %45, 0
  br i1 %.not114, label %81, label %46

46:                                               ; preds = %21
  %47 = trunc i64 %45 to i32
  %48 = trunc i64 %45 to i32
  %sext117 = shl i32 %48, 16
  %49 = ashr exact i32 %sext117, 16
  %50 = mul nsw i32 %49, 32767
  %sh.diff = lshr i64 %45, 16
  %tr.sh.diff = trunc i64 %sh.diff to i32
  %51 = ashr i32 %tr.sh.diff, 16
  %52 = mul nsw i32 %51, 17734
  %53 = add i32 %50, %26
  %54 = add i32 %53, %52
  %55 = mul nsw i32 %49, -32767
  %56 = mul nsw i32 %51, 42813
  %57 = add i32 %55, %28
  %58 = sub i32 %57, %56
  %59 = add i32 %55, %29
  %60 = add i32 %59, %56
  %61 = add i32 %50, %30
  %62 = sub i32 %61, %52
  %63 = ashr i32 %47, 16
  %64 = mul nsw i32 %63, 25746
  %65 = add i32 %64, %35
  %sh.diff121 = lshr i64 %45, 32
  %tr.sh.diff122 = trunc nuw i64 %sh.diff121 to i32
  %66 = ashr i32 %tr.sh.diff122, 16
  %67 = mul nsw i32 %66, 9041
  %68 = add i32 %65, %67
  %69 = mul nsw i32 %63, -45451
  %70 = add i32 %69, %38
  %71 = mul nsw i32 %66, -25746
  %72 = add i32 %70, %71
  %73 = mul nsw i32 %63, 9041
  %74 = add i32 %73, %41
  %75 = mul nsw i32 %66, 38531
  %76 = add i32 %74, %75
  %77 = mul nsw i32 %63, 38531
  %78 = add i32 %77, %44
  %79 = mul nsw i32 %66, -45451
  %80 = add i32 %78, %79
  br label %81

81:                                               ; preds = %46, %21
  %.0112 = phi i32 [ %54, %46 ], [ %26, %21 ]
  %.0111 = phi i32 [ %58, %46 ], [ %28, %21 ]
  %.0110 = phi i32 [ %60, %46 ], [ %29, %21 ]
  %.0109 = phi i32 [ %62, %46 ], [ %30, %21 ]
  %.0108 = phi i32 [ %68, %46 ], [ %35, %21 ]
  %.0107 = phi i32 [ %72, %46 ], [ %38, %21 ]
  %.0106 = phi i32 [ %76, %46 ], [ %41, %21 ]
  %.0105 = phi i32 [ %80, %46 ], [ %44, %21 ]
  %82 = add i32 %.0108, %.0112
  %83 = lshr i32 %82, 16
  %84 = trunc nuw i32 %83 to i16
  store i16 %84, ptr %0, align 2, !tbaa !6
  %85 = sub i32 %.0112, %.0108
  %86 = lshr i32 %85, 16
  %87 = trunc nuw i32 %86 to i16
  %88 = getelementptr inbounds nuw i8, ptr %0, i64 14
  store i16 %87, ptr %88, align 2, !tbaa !6
  %89 = add i32 %.0107, %.0111
  %90 = lshr i32 %89, 16
  %91 = trunc nuw i32 %90 to i16
  store i16 %91, ptr %10, align 2, !tbaa !6
  %92 = sub i32 %.0111, %.0107
  %93 = lshr i32 %92, 16
  %94 = trunc nuw i32 %93 to i16
  store i16 %94, ptr %6, align 2, !tbaa !6
  %95 = add i32 %.0106, %.0110
  %96 = lshr i32 %95, 16
  %97 = trunc nuw i32 %96 to i16
  store i16 %97, ptr %2, align 2, !tbaa !6
  %98 = sub i32 %.0110, %.0106
  %99 = lshr i32 %98, 16
  %100 = trunc nuw i32 %99 to i16
  %101 = getelementptr inbounds nuw i8, ptr %0, i64 10
  store i16 %100, ptr %101, align 2, !tbaa !6
  %102 = add i32 %.0105, %.0109
  %103 = lshr i32 %102, 16
  %104 = trunc nuw i32 %103 to i16
  store i16 %104, ptr %32, align 2, !tbaa !6
  %105 = sub i32 %.0109, %.0105
  %106 = lshr i32 %105, 16
  %107 = trunc nuw i32 %106 to i16
  store i16 %107, ptr %4, align 2, !tbaa !6
  br label %108

108:                                              ; preds = %81, %16
  ret void
}